target datalayout = "e-m:e-p270:32:32-p271:32:32-p272:64:64-i64:64-i128:128-f80:128-n8:16:32:64-S128"
target triple = "x86_64-pc-linux-gnu"

%struct.Aig_Obj_t_ = type { %union.anon, ptr, ptr, i64, i32, i32, %union.anon.0 }
%union.anon = type { ptr }
%union.anon.0 = type { ptr }
%struct.Aig_Man_t_ = type { ptr, ptr, ptr, ptr, ptr, ptr, ptr, %struct.Aig_Obj_t_, i32, i32, i32, i32, i32, i32, [7 x i32], i32, ptr, i32, ptr, i32, ptr, i32, i32, i32, ptr, i32, i32, i32, i32, i32, ptr, ptr, i32, ptr, ptr, i32, ptr, ptr, i32, i32, i32, ptr, ptr, ptr, ptr, ptr, ptr, ptr, ptr, ptr, ptr, ptr, ptr, ptr, ptr, i32, ptr, ptr, ptr, ptr, i32, i64, i64, i64, ptr, ptr }
%struct.Vec_Int_t_ = type { i32, i32, ptr }
%struct.Vec_Ptr_t_ = type { i32, i32, ptr }

; Function Attrs: nounwind uwtable
define internal i32 @Aig_ObjId(ptr noundef %0) #0 {
  %2 = alloca ptr, align 8
  store ptr %0, ptr %2, align 8
  %3 = load ptr, ptr %2, align 8
  %4 = getelementptr inbounds %struct.Aig_Obj_t_, ptr %3, i32 0, i32 5
  %5 = load i32, ptr %4, align 4
  ret i32 %5
}

; Function Attrs: nounwind uwtable
define internal i32 @Pdr_ManSimInfoGet(ptr noundef %0, ptr noundef %1) #0 {
  %3 = alloca ptr, align 8
  %4 = alloca ptr, align 8
  store ptr %0, ptr %3, align 8
  store ptr %1, ptr %4, align 8
  %5 = load ptr, ptr %3, align 8
  %6 = getelementptr inbounds %struct.Aig_Man_t_, ptr %5, i32 0, i32 47
  %7 = load ptr, ptr %6, align 8
  %8 = load ptr, ptr %4, align 8
  %9 = call i32 @Aig_ObjId(ptr noundef %8)
  %10 = ashr i32 %9, 4
  %11 = sext i32 %10 to i64
  %12 = getelementptr inbounds i32, ptr %7, i64 %11
  %13 = load i32, ptr %12, align 4
  %14 = load ptr, ptr %4, align 8
  %15 = call i32 @Aig_ObjId(ptr noundef %14)
  %16 = and i32 %15, 15
  %17 = shl i32 %16, 1
  %18 = lshr i32 %13, %17
  %19 = and i32 3, %18
  ret i32 %19
}

; Function Attrs: nounwind uwtable
define internal ptr @Vec_PtrEntry(ptr noundef %0, i32 noundef %1) #0 {
  %3 = alloca ptr, align 8
  %4 = alloca i32, align 4
  store ptr %0, ptr %3, align 8
  store i32 %1, ptr %4, align 4
  %5 = load ptr, ptr %3, align 8
  %6 = getelementptr inbounds %struct.Vec_Ptr_t_, ptr %5, i32 0, i32 2
  %7 = load ptr, ptr %6, align 8
  %8 = load i32, ptr %4, align 4
  %9 = sext i32 %8 to i64
  %10 = getelementptr inbounds ptr, ptr %7, i64 %9
  %11 = load ptr, ptr %10, align 8
  ret ptr %11
}

; Function Attrs: nounwind uwtable
define internal void @Pdr_ManSimInfoSet(ptr noundef %0, ptr noundef %1, i32 noundef %2) #0 {
  %4 = alloca ptr, align 8
  %5 = alloca ptr, align 8
  %6 = alloca i32, align 4
  store ptr %0, ptr %4, align 8
  store ptr %1, ptr %5, align 8
  store i32 %2, ptr %6, align 4
  %7 = load ptr, ptr %4, align 8
  %8 = load ptr, ptr %5, align 8
  %9 = call i32 @Pdr_ManSimInfoGet(ptr noundef %7, ptr noundef %8)
  %10 = load i32, ptr %6, align 4
  %11 = xor i32 %10, %9
  store i32 %11, ptr %6, align 4
  %12 = load i32, ptr %6, align 4
  %13 = load ptr, ptr %5, align 8
  %14 = call i32 @Aig_ObjId(ptr noundef %13)
  %15 = and i32 %14, 15
  %16 = shl i32 %15, 1
  %17 = shl i32 %12, %16
  %18 = load ptr, ptr %4, align 8
  %19 = getelementptr inbounds %struct.Aig_Man_t_, ptr %18, i32 0, i32 47
  %20 = load ptr, ptr %19, align 8
  %21 = load ptr, ptr %5, align 8
  %22 = call i32 @Aig_ObjId(ptr noundef %21)
  %23 = ashr i32 %22, 4
  %24 = sext i32 %23 to i64
  %25 = getelementptr inbounds i32, ptr %20, i64 %24
  %26 = load i32, ptr %25, align 4
  %27 = xor i32 %26, %17
  store i32 %27, ptr %25, align 4
  ret void
}

; Function Attrs: nounwind uwtable
define internal ptr @Aig_ManObj(ptr noundef %0, i32 noundef %1) #0 {
  %3 = alloca ptr, align 8
  %4 = alloca i32, align 4
  store ptr %0, ptr %3, align 8
  store i32 %1, ptr %4, align 4
  %5 = load ptr, ptr %3, align 8
  %6 = getelementptr inbounds %struct.Aig_Man_t_, ptr %5, i32 0, i32 4
  %7 = load ptr, ptr %6, align 8
  %8 = icmp ne ptr %7, null
  br i1 %8, label %9, label %15

9:                                                ; preds = %2
  %10 = load ptr, ptr %3, align 8
  %11 = getelementptr inbounds %struct.Aig_Man_t_, ptr %10, i32 0, i32 4
  %12 = load ptr, ptr %11, align 8
  %13 = load i32, ptr %4, align 4
  %14 = call ptr @Vec_PtrEntry(ptr noundef %12, i32 noundef %13)
  br label %16

15:                                               ; preds = %2
  br label %16

16:                                               ; preds = %15, %9
  %17 = phi ptr [ %14, %9 ], [ null, %15 ]
  ret ptr %17
}

; Function Attrs: nounwind uwtable
define internal i32 @Vec_IntEntry(ptr noundef %0, i32 noundef %1) #0 {
  %3 = alloca ptr, align 8
  %4 = alloca i32, align 4
  store ptr %0, ptr %3, align 8
  store i32 %1, ptr %4, align 4
  %5 = load ptr, ptr %3, align 8
  %6 = getelementptr inbounds %struct.Vec_Int_t_, ptr %5, i32 0, i32 2
  %7 = load ptr, ptr %6, align 8
  %8 = load i32, ptr %4, align 4
  %9 = sext i32 %8 to i64
  %10 = getelementptr inbounds i32, ptr %7, i64 %9
  %11 = load i32, ptr %10, align 4
  ret i32 %11
}

; Function Attrs: nounwind uwtable
define internal i32 @Vec_IntSize(ptr noundef %0) #0 {
  %2 = alloca ptr, align 8
  store ptr %0, ptr %2, align 8
  %3 = load ptr, ptr %2, align 8
  %4 = getelementptr inbounds %struct.Vec_Int_t_, ptr %3, i32 0, i32 1
  %5 = load i32, ptr %4, align 4
  ret i32 %5
}

; Function Attrs: nounwind uwtable
define void @Pdr_ManExtendUndo(ptr noundef %0, ptr noundef %1) #0 {
  %3 = alloca ptr, align 8
  %4 = alloca ptr, align 8
  %5 = alloca ptr, align 8
  %6 = alloca i32, align 4
  %7 = alloca i32, align 4
  store ptr %0, ptr %3, align 8
  store ptr %1, ptr %4, align 8
  store i32 0, ptr %6, align 4
  br label %8

8:                                                ; preds = %29, %2
  %9 = load i32, ptr %6, align 4
  %10 = load ptr, ptr %4, align 8
  %11 = call i32 @Vec_IntSize(ptr noundef %10)
  %12 = icmp slt i32 %9, %11
  br i1 %12, label %13, label %19

13:                                               ; preds = %8
  %14 = load ptr, ptr %3, align 8
  %15 = load ptr, ptr %4, align 8
  %16 = load i32, ptr %6, align 4
  %17 = call i32 @Vec_IntEntry(ptr noundef %15, i32 noundef %16)
  %18 = call ptr @Aig_ManObj(ptr noundef %14, i32 noundef %17)
  store ptr %18, ptr %5, align 8
  br label %19

19:                                               ; preds = %13, %8
  %20 = phi i1 [ false, %8 ], [ true, %13 ]
  br i1 %20, label %21, label %32

21:                                               ; preds = %19
  %22 = load ptr, ptr %4, align 8
  %23 = load i32, ptr %6, align 4
  %24 = add nsw i32 %23, 1
  store i32 %24, ptr %6, align 4
  %25 = call i32 @Vec_IntEntry(ptr noundef %22, i32 noundef %24)
  store i32 %25, ptr %7, align 4
  %26 = load ptr, ptr %3, align 8
  %27 = load ptr, ptr %5, align 8
  %28 = load i32, ptr %7, align 4
  call void @Pdr_ManSimInfoSet(ptr noundef %26, ptr noundef %27, i32 noundef %28)
  br label %29

29:                                               ; preds = %21
  %30 = load i32, ptr %6, align 4
  %31 = add nsw i32 %30, 1
  store i32 %31, ptr %6, align 4
  br label %8, !llvm.loop !14

32:                                               ; preds = %19
  ret void
}