; Function Attrs: nofree norecurse nosync nounwind memory(readwrite, inaccessiblemem: none) uwtable
define void @Pdr_ManExtendUndo(ptr noundef readonly captures(none) %0, ptr noundef readonly captures(none) %1) local_unnamed_addr #3 {
  %3 = getelementptr i8, ptr %1, i64 4
  %.val15 = load i32, ptr %3, align 4
  %4 = icmp sgt i32 %.val15, 0
  br i1 %4, label %Aig_ManObj.exit.lr.ph, label %.critedge

Aig_ManObj.exit.lr.ph:                            ; preds = %2
  %5 = getelementptr i8, ptr %1, i64 8
  %6 = getelementptr i8, ptr %0, i64 32
  %7 = getelementptr i8, ptr %0, i64 376
  br label %Aig_ManObj.exit

Aig_ManObj.exit:                                  ; preds = %Aig_ManObj.exit.lr.ph, %Aig_ManObj.exit
  %indvars.iv = phi i64 [ 0, %Aig_ManObj.exit.lr.ph ], [ %indvars.iv.next, %Aig_ManObj.exit ]
  %.val11 = load ptr, ptr %5, align 8
  %8 = getelementptr inbounds nuw i32, ptr %.val11, i64 %indvars.iv
  %9 = load i32, ptr %8, align 4
  %.val12 = load ptr, ptr %6, align 8, !nonnull !6, !noundef !6
  %10 = getelementptr i8, ptr %.val12, i64 8
  %.val.i = load ptr, ptr %10, align 8
  %11 = sext i32 %9 to i64
  %12 = getelementptr inbounds ptr, ptr %.val.i, i64 %11
  %13 = load ptr, ptr %12, align 8
  %14 = or disjoint i64 %indvars.iv, 1
  %15 = getelementptr inbounds nuw i32, ptr %.val11, i64 %14
  %16 = load i32, ptr %15, align 4
  %.val13 = load ptr, ptr %7, align 8
  %17 = getelementptr i8, ptr %13, i64 36
  %.val14 = load i32, ptr %17, align 4
  %18 = ashr i32 %.val14, 4
  %19 = sext i32 %18 to i64
  %20 = getelementptr inbounds i32, ptr %.val13, i64 %19
  %21 = load i32, ptr %20, align 4
  %22 = shl i32 %.val14, 1
  %23 = and i32 %22, 30
  %24 = lshr i32 %21, %23
  %25 = and i32 %24, 3
  %26 = xor i32 %25, %16
  %27 = shl i32 %26, %23
  %28 = xor i32 %27, %21
  store i32 %28, ptr %20, align 4
  %indvars.iv.next = add nuw nsw i64 %indvars.iv, 2
  %.val = load i32, ptr %3, align 4
  %29 = sext i32 %.val to i64
  %30 = icmp slt i64 %indvars.iv.next, %29
  br i1 %30, label %Aig_ManObj.exit, label %.critedge, !llvm.loop !15

.critedge:                                        ; preds = %Aig_ManObj.exit, %2
  ret void
}